; Function Attrs: null_pointer_is_valid sspstrong uwtable
define i32 @file_error(ptr noundef readonly captures(none) %0, ptr noundef writeonly captures(address_is_null) %1) local_unnamed_addr #0 {
  %3 = getelementptr inbounds nuw i8, ptr %0, i64 132
  %4 = load i32, ptr %3, align 4
  %5 = icmp ne i32 %4, 0
  %6 = icmp ne ptr %1, null
  %or.cond = and i1 %6, %5
  br i1 %or.cond, label %7, label %11

7:                                                ; preds = %2
  %8 = getelementptr inbounds nuw i8, ptr %0, i64 136
  %9 = load ptr, ptr %8, align 8
  %10 = tail call noalias ptr @g_strdup(ptr noundef %9)
  store ptr %10, ptr %1, align 8
  %.pre = load i32, ptr %3, align 4
  br label %11

11:                                               ; preds = %7, %2
  %12 = phi i32 [ %.pre, %7 ], [ %4, %2 ]
  ret i32 %12
}